target datalayout = "e-m:e-p270:32:32-p271:32:32-p272:64:64-i64:64-i128:128-f80:128-n8:16:32:64-S128"
target triple = "x86_64-pc-linux-gnu"

%struct.DecoderPriv = type { %struct.Decoder, ptr, ptr, ptr, ptr, %struct.AVRational, %struct.AVRational, i32, i32, i32, i32, i32, i32, i64, i64, %struct.AVRational, i64, i32, [2 x ptr], ptr, ptr, i32, i32, ptr, [32 x i8], ptr, i32, ptr, i32, ptr, i32, %struct.anon }
%struct.Decoder = type { ptr, i32, ptr, i32, i64, i64, i64 }
%struct.AVRational = type { i32, i32 }
%struct.anon = type { ptr, ptr }

; Function Attrs: nounwind uwtable
define internal ptr @dp_from_dec(ptr noundef %0) #0 {
  %2 = alloca ptr, align 8
  store ptr %0, ptr %2, align 8, !tbaa !10
  %3 = load ptr, ptr %2, align 8, !tbaa !10
  ret ptr %3
}

; Function Attrs: nounwind uwtable
define void @dec_free(ptr noundef %0) #0 {
  %2 = alloca ptr, align 8
  %3 = alloca ptr, align 8
  %4 = alloca ptr, align 8
  %5 = alloca i32, align 4
  %6 = alloca i32, align 4
  store ptr %0, ptr %2, align 8, !tbaa !4
  call void @llvm.lifetime.start.p0(i64 8, ptr %3) #11
  %7 = load ptr, ptr %2, align 8, !tbaa !4
  %8 = load ptr, ptr %7, align 8, !tbaa !10
  store ptr %8, ptr %3, align 8, !tbaa !10
  call void @llvm.lifetime.start.p0(i64 8, ptr %4) #11
  %9 = load ptr, ptr %3, align 8, !tbaa !10
  %10 = icmp ne ptr %9, null
  br i1 %10, label %12, label %11

11:                                               ; preds = %1
  store i32 1, ptr %5, align 4
  br label %50

12:                                               ; preds = %1
  %13 = load ptr, ptr %3, align 8, !tbaa !10
  %14 = call ptr @dp_from_dec(ptr noundef %13)
  store ptr %14, ptr %4, align 8, !tbaa !12
  %15 = load ptr, ptr %4, align 8, !tbaa !12
  %16 = getelementptr inbounds nuw %struct.DecoderPriv, ptr %15, i32 0, i32 1
  call void @avcodec_free_context(ptr noundef %16)
  %17 = load ptr, ptr %4, align 8, !tbaa !12
  %18 = getelementptr inbounds nuw %struct.DecoderPriv, ptr %17, i32 0, i32 2
  call void @av_frame_free(ptr noundef %18)
  %19 = load ptr, ptr %4, align 8, !tbaa !12
  %20 = getelementptr inbounds nuw %struct.DecoderPriv, ptr %19, i32 0, i32 3
  call void @av_frame_free(ptr noundef %20)
  %21 = load ptr, ptr %4, align 8, !tbaa !12
  %22 = getelementptr inbounds nuw %struct.DecoderPriv, ptr %21, i32 0, i32 4
  call void @av_packet_free(ptr noundef %22)
  %23 = load ptr, ptr %4, align 8, !tbaa !12
  %24 = getelementptr inbounds nuw %struct.DecoderPriv, ptr %23, i32 0, i32 31
  %25 = getelementptr inbounds nuw %struct.anon, ptr %24, i32 0, i32 0
  call void @av_dict_free(ptr noundef %25)
  call void @llvm.lifetime.start.p0(i64 4, ptr %6) #11
  store i32 0, ptr %6, align 4, !tbaa !14
  br label %26

26:                                               ; preds = %37, %12
  %27 = load i32, ptr %6, align 4, !tbaa !14
  %28 = sext i32 %27 to i64
  %29 = icmp ult i64 %28, 2
  br i1 %29, label %31, label %30

30:                                               ; preds = %26
  store i32 2, ptr %5, align 4
  call void @llvm.lifetime.end.p0(i64 4, ptr %6) #11
  br label %40

31:                                               ; preds = %26
  %32 = load ptr, ptr %4, align 8, !tbaa !12
  %33 = getelementptr inbounds nuw %struct.DecoderPriv, ptr %32, i32 0, i32 18
  %34 = load i32, ptr %6, align 4, !tbaa !14
  %35 = sext i32 %34 to i64
  %36 = getelementptr inbounds [2 x ptr], ptr %33, i64 0, i64 %35
  call void @av_frame_free(ptr noundef %36)
  br label %37

37:                                               ; preds = %31
  %38 = load i32, ptr %6, align 4, !tbaa !14
  %39 = add nsw i32 %38, 1
  store i32 %39, ptr %6, align 4, !tbaa !14
  br label %26, !llvm.loop !16

40:                                               ; preds = %30
  %41 = load ptr, ptr %4, align 8, !tbaa !12
  %42 = getelementptr inbounds nuw %struct.DecoderPriv, ptr %41, i32 0, i32 19
  call void @av_frame_free(ptr noundef %42)
  %43 = load ptr, ptr %4, align 8, !tbaa !12
  %44 = getelementptr inbounds nuw %struct.DecoderPriv, ptr %43, i32 0, i32 25
  call void @av_freep(ptr noundef %44)
  %45 = load ptr, ptr %4, align 8, !tbaa !12
  %46 = getelementptr inbounds nuw %struct.DecoderPriv, ptr %45, i32 0, i32 27
  call void @av_freep(ptr noundef %46)
  %47 = load ptr, ptr %4, align 8, !tbaa !12
  %48 = getelementptr inbounds nuw %struct.DecoderPriv, ptr %47, i32 0, i32 29
  call void @av_freep(ptr noundef %48)
  %49 = load ptr, ptr %2, align 8, !tbaa !4
  call void @av_freep(ptr noundef %49)
  store i32 0, ptr %5, align 4
  br label %50

50:                                               ; preds = %40, %11
  call void @llvm.lifetime.end.p0(i64 8, ptr %4) #11
  call void @llvm.lifetime.end.p0(i64 8, ptr %3) #11
  %51 = load i32, ptr %5, align 4
  switch i32 %51, label %53 [
    i32 0, label %52
    i32 1, label %52
  ]

52:                                               ; preds = %50, %50
  ret void

53:                                               ; preds = %50
  unreachable
}