; Function Attrs: nounwind uwtable
define void @dec_free(ptr noundef %0) local_unnamed_addr #0 {
  %2 = load ptr, ptr %0, align 8, !tbaa !4
  %.not = icmp eq ptr %2, null
  br i1 %.not, label %14, label %.critedge

.critedge:                                        ; preds = %1
  %3 = getelementptr inbounds nuw i8, ptr %2, i64 56
  tail call void @avcodec_free_context(ptr noundef nonnull %3) #13
  %4 = getelementptr inbounds nuw i8, ptr %2, i64 64
  tail call void @av_frame_free(ptr noundef nonnull %4) #13
  %5 = getelementptr inbounds nuw i8, ptr %2, i64 72
  tail call void @av_frame_free(ptr noundef nonnull %5) #13
  %6 = getelementptr inbounds nuw i8, ptr %2, i64 80
  tail call void @av_packet_free(ptr noundef nonnull %6) #13
  %7 = getelementptr inbounds nuw i8, ptr %2, i64 296
  tail call void @av_dict_free(ptr noundef nonnull %7) #13
  %8 = getelementptr inbounds nuw i8, ptr %2, i64 168
  tail call void @av_frame_free(ptr noundef nonnull %8) #13
  %9 = getelementptr inbounds nuw i8, ptr %2, i64 176
  tail call void @av_frame_free(ptr noundef nonnull %9) #13
  %10 = getelementptr inbounds nuw i8, ptr %2, i64 184
  tail call void @av_frame_free(ptr noundef nonnull %10) #13
  %11 = getelementptr inbounds nuw i8, ptr %2, i64 248
  tail call void @av_freep(ptr noundef nonnull %11) #13
  %12 = getelementptr inbounds nuw i8, ptr %2, i64 264
  tail call void @av_freep(ptr noundef nonnull %12) #13
  %13 = getelementptr inbounds nuw i8, ptr %2, i64 280
  tail call void @av_freep(ptr noundef nonnull %13) #13
  tail call void @av_freep(ptr noundef nonnull %0) #13
  br label %14

14:                                               ; preds = %1, %.critedge
  ret void
}